; Function Attrs: nounwind uwtable
define nonnull ptr @l_Lean_Meta_Grind_Arith_Cutsat_inDiseqValues___boxed(ptr noundef %0, ptr noundef %1) local_unnamed_addr #1 {
  %3 = tail call ptr @l_Lean_Meta_Grind_Arith_Cutsat_findDiseq_x3f(ptr noundef %0, ptr noundef readonly %1)
  %4 = ptrtoint ptr %3 to i64
  %5 = and i64 %4, 1
  %.not.i6.i = icmp eq i64 %5, 0
  br i1 %.not.i6.i, label %lean_obj_tag.exit.thread.i, label %lean_obj_tag.exit.i

lean_obj_tag.exit.i:                              ; preds = %2
  %6 = and i64 %4, 8589934590
  %.not9 = icmp eq i64 %6, 0
  %7 = select i1 %.not9, i64 1, i64 3
  br label %l_Lean_Meta_Grind_Arith_Cutsat_inDiseqValues.exit

lean_obj_tag.exit.thread.i:                       ; preds = %2
  %8 = getelementptr i8, ptr %3, i64 4
  %.val.i.i = load i32, ptr %8, align 4
  %9 = icmp ult i32 %.val.i.i, 16777216
  br i1 %9, label %l_Lean_Meta_Grind_Arith_Cutsat_inDiseqValues.exit, label %.thread.i

.thread.i:                                        ; preds = %lean_obj_tag.exit.thread.i
  %10 = load i32, ptr %3, align 4, !tbaa !6
  %11 = icmp sgt i32 %10, 1
  br i1 %11, label %12, label %14, !prof !5

12:                                               ; preds = %.thread.i
  %13 = add nsw i32 %10, -1
  store i32 %13, ptr %3, align 4, !tbaa !6
  br label %l_Lean_Meta_Grind_Arith_Cutsat_inDiseqValues.exit

14:                                               ; preds = %.thread.i
  %.not.i.i = icmp eq i32 %10, 0
  br i1 %.not.i.i, label %l_Lean_Meta_Grind_Arith_Cutsat_inDiseqValues.exit, label %15

15:                                               ; preds = %14
  tail call void @lean_dec_ref_cold(ptr noundef nonnull %3) #6
  br label %l_Lean_Meta_Grind_Arith_Cutsat_inDiseqValues.exit

l_Lean_Meta_Grind_Arith_Cutsat_inDiseqValues.exit: ; preds = %lean_obj_tag.exit.i, %lean_obj_tag.exit.thread.i, %12, %14, %15
  %.0.i = phi i64 [ 1, %lean_obj_tag.exit.thread.i ], [ 3, %15 ], [ 3, %14 ], [ 3, %12 ], [ %7, %lean_obj_tag.exit.i ]
  %16 = ptrtoint ptr %1 to i64
  %17 = and i64 %16, 1
  %.not = icmp eq i64 %17, 0
  br i1 %.not, label %18, label %lean_dec.exit5

18:                                               ; preds = %l_Lean_Meta_Grind_Arith_Cutsat_inDiseqValues.exit
  %19 = load i32, ptr %1, align 4, !tbaa !6
  %20 = icmp sgt i32 %19, 1
  br i1 %20, label %21, label %23, !prof !5

21:                                               ; preds = %18
  %22 = add nsw i32 %19, -1
  store i32 %22, ptr %1, align 4, !tbaa !6
  br label %lean_dec.exit5

23:                                               ; preds = %18
  %.not.i = icmp eq i32 %19, 0
  br i1 %.not.i, label %lean_dec.exit5, label %24

24:                                               ; preds = %23
  tail call void @lean_dec_ref_cold(ptr noundef nonnull %1) #6
  br label %lean_dec.exit5

lean_dec.exit5:                                   ; preds = %24, %23, %21, %l_Lean_Meta_Grind_Arith_Cutsat_inDiseqValues.exit
  %25 = ptrtoint ptr %0 to i64
  %26 = and i64 %25, 1
  %.not8 = icmp eq i64 %26, 0
  br i1 %.not8, label %27, label %lean_dec.exit

27:                                               ; preds = %lean_dec.exit5
  %28 = load i32, ptr %0, align 4, !tbaa !6
  %29 = icmp sgt i32 %28, 1
  br i1 %29, label %30, label %32, !prof !5

30:                                               ; preds = %27
  %31 = add nsw i32 %28, -1
  store i32 %31, ptr %0, align 4, !tbaa !6
  br label %lean_dec.exit

32:                                               ; preds = %27
  %.not.i6 = icmp eq i32 %28, 0
  br i1 %.not.i6, label %lean_dec.exit, label %33

33:                                               ; preds = %32
  tail call void @lean_dec_ref_cold(ptr noundef nonnull %0) #6
  br label %lean_dec.exit

lean_dec.exit:                                    ; preds = %33, %32, %30, %lean_dec.exit5
  %34 = inttoptr i64 %.0.i to ptr
  ret ptr %34
}